; Function Attrs: mustprogress nounwind uwtable
define hidden void @_ZN23ConcurrentGCBreakpoints16run_to_idle_implEb(i1 noundef zeroext %0) local_unnamed_addr #2 align 2 {
  %2 = load ptr, ptr @ConcurrentGCBreakpoints_lock, align 8
  %.not.i.i = icmp eq ptr %2, null
  br i1 %.not.i.i, label %_ZN13MonitorLockerC2EP7MonitorN5Mutex18SafepointCheckFlagE.exit, label %3

3:                                                ; preds = %1
  tail call void @_ZN5Mutex4lockEv(ptr noundef nonnull align 8 dereferenceable(104) %2) #7
  br label %_ZN13MonitorLockerC2EP7MonitorN5Mutex18SafepointCheckFlagE.exit

_ZN13MonitorLockerC2EP7MonitorN5Mutex18SafepointCheckFlagE.exit: ; preds = %1, %3
  %4 = load volatile ptr, ptr getelementptr inbounds (i8, ptr @_ZN16LogTagSetMappingILN6LogTag4typeE49ELS1_11ELS1_0ELS1_0ELS1_0ELS1_0EE7_tagsetE, i64 48), align 8
  %.not4 = icmp eq ptr %4, null
  br i1 %.not4, label %5, label %.sink.split

.sink.split:                                      ; preds = %_ZN13MonitorLockerC2EP7MonitorN5Mutex18SafepointCheckFlagE.exit
  %.str..str.4 = select i1 %0, ptr @.str, ptr @.str.4
  tail call void (ptr, ...) @_ZN7LogImplILN6LogTag4typeE49ELS1_11ELS1_0ELS1_0ELS1_0ELS1_0EE5writeILN8LogLevel4typeE1EEEvPKcz(ptr noundef nonnull %.str..str.4)
  br label %5

5:                                                ; preds = %_ZN13MonitorLockerC2EP7MonitorN5Mutex18SafepointCheckFlagE.exit, %.sink.split
  store ptr null, ptr @_ZN23ConcurrentGCBreakpoints7_run_toE, align 8
  store i8 0, ptr @_ZN23ConcurrentGCBreakpoints11_is_stoppedE, align 1
  store i8 1, ptr @_ZN23ConcurrentGCBreakpoints10_want_idleE, align 1
  tail call void @_ZN7Monitor10notify_allEv(ptr noundef nonnull align 8 dereferenceable(104) %2) #7
  %6 = load i8, ptr @_ZN23ConcurrentGCBreakpoints8_is_idleE, align 1
  %7 = trunc i8 %6 to i1
  br i1 %7, label %_ZN13MonitorLockerD2Ev.exit, label %_ZN13MonitorLocker4waitEl.exit

_ZN13MonitorLocker4waitEl.exit:                   ; preds = %5, %_ZN13MonitorLocker4waitEl.exit
  %8 = tail call noundef zeroext i1 @_ZN7Monitor4waitEm(ptr noundef nonnull align 8 dereferenceable(104) %2, i64 noundef 0) #7
  %9 = load i8, ptr @_ZN23ConcurrentGCBreakpoints8_is_idleE, align 1
  %10 = trunc i8 %9 to i1
  br i1 %10, label %_ZN13MonitorLockerD2Ev.exit, label %_ZN13MonitorLocker4waitEl.exit, !llvm.loop !6

_ZN13MonitorLockerD2Ev.exit:                      ; preds = %_ZN13MonitorLocker4waitEl.exit, %5
  tail call void @_ZN5Mutex6unlockEv(ptr noundef nonnull align 8 dereferenceable(104) %2) #7
  ret void
}